target datalayout = "e-m:e-p270:32:32-p271:32:32-p272:64:64-i64:64-i128:128-f80:128-n8:16:32:64-S128"
target triple = "x86_64-pc-linux-gnu"

%struct.pmix_list_t = type { %struct.pmix_object_t, %struct.pmix_list_item_t, i64 }
%struct.pmix_object_t = type { %union.pthread_mutex_t, ptr, i32, %struct.pmix_tma }
%union.pthread_mutex_t = type { %struct.__pthread_mutex_s }
%struct.__pthread_mutex_s = type { i32, i32, i32, i32, i32, i16, i16, %struct.__pthread_internal_list }
%struct.__pthread_internal_list = type { ptr, ptr }
%struct.pmix_tma = type { ptr, ptr, ptr, ptr, ptr, ptr, ptr, ptr }
%struct.pmix_list_item_t = type { %struct.pmix_object_t, ptr, ptr, i32 }
%struct.pmix_globals_t = type { i32, %struct.pmix_proc, %struct.pmix_value, %struct.pmix_value, ptr, i32, i32, ptr, i32, i32, i32, i32, i32, ptr, ptr, i32, %struct.pmix_events_t, i8, i8, %struct.timeval, %struct.pmix_list_t, %struct.pmix_pointer_array_t, i32, i32, %struct.pmix_hotel_t, i8, %struct.pmix_list_t, i8, i8, i8, i64, %struct.pmix_list_t, %struct.pmix_topology_t, %struct.pmix_cpuset_t, i8, i8, %struct.pmix_iof_flags_t, %struct.pmix_keyindex_t }
%struct.pmix_proc = type { [256 x i8], i32 }
%struct.pmix_value = type { i16, %union.anon }
%union.anon = type { %struct.pmix_envar_t }
%struct.pmix_envar_t = type { ptr, ptr, i8 }
%struct.pmix_events_t = type { %struct.pmix_object_t, i64, ptr, ptr, %struct.pmix_list_t, %struct.pmix_list_t, %struct.pmix_list_t, %struct.pmix_list_t }
%struct.timeval = type { i64, i64 }
%struct.pmix_pointer_array_t = type { %struct.pmix_object_t, i32, i32, i32, i32, i32, ptr, ptr }
%struct.pmix_hotel_t = type { %struct.pmix_object_t, i32, ptr, %struct.timeval, ptr, ptr, ptr, ptr, i32 }
%struct.pmix_topology_t = type { ptr, ptr }
%struct.pmix_cpuset_t = type { ptr, ptr }
%struct.pmix_iof_flags_t = type { i8, i8, i8, i8, i8, i8, i8, ptr, ptr, i8, i8, i8, i8, i8, i8 }
%struct.pmix_keyindex_t = type { %struct.pmix_object_t, ptr, i32 }
%struct.pmix_regattr_input_t = type { i32, ptr, ptr, i16, ptr }

@pmix_globals = external global %struct.pmix_globals_t, align 8

; Function Attrs: inlinehint nounwind uwtable
define internal ptr @pmix_pointer_array_get_item(ptr noundef %0, i32 noundef %1) #3 {
  %3 = alloca ptr, align 8
  %4 = alloca ptr, align 8
  %5 = alloca i32, align 4
  %6 = alloca ptr, align 8
  %7 = alloca i32, align 4
  store ptr %0, ptr %4, align 8, !tbaa !199
  store i32 %1, ptr %5, align 4, !tbaa !9
  call void @llvm.lifetime.start.p0(i64 8, ptr %6) #13
  %8 = load i32, ptr %5, align 4, !tbaa !9
  %9 = icmp sgt i32 0, %8
  br i1 %9, label %16, label %10

10:                                               ; preds = %2
  %11 = load ptr, ptr %4, align 8, !tbaa !199
  %12 = getelementptr inbounds nuw %struct.pmix_pointer_array_t, ptr %11, i32 0, i32 3
  %13 = load i32, ptr %12, align 8, !tbaa !197
  %14 = load i32, ptr %5, align 4, !tbaa !9
  %15 = icmp sle i32 %13, %14
  br label %16

16:                                               ; preds = %10, %2
  %17 = phi i1 [ true, %2 ], [ %15, %10 ]
  %18 = xor i1 %17, true
  %19 = xor i1 %18, true
  %20 = zext i1 %19 to i32
  %21 = sext i32 %20 to i64
  %22 = call i64 @llvm.expect.i64(i64 %21, i64 0)
  %23 = icmp ne i64 %22, 0
  br i1 %23, label %24, label %25

24:                                               ; preds = %16
  store ptr null, ptr %3, align 8
  store i32 1, ptr %7, align 4
  br label %34

25:                                               ; preds = %16
  %26 = load ptr, ptr %4, align 8, !tbaa !199
  %27 = getelementptr inbounds nuw %struct.pmix_pointer_array_t, ptr %26, i32 0, i32 7
  %28 = load ptr, ptr %27, align 8, !tbaa !200
  %29 = load i32, ptr %5, align 4, !tbaa !9
  %30 = sext i32 %29 to i64
  %31 = getelementptr inbounds ptr, ptr %28, i64 %30
  %32 = load ptr, ptr %31, align 8, !tbaa !42
  store ptr %32, ptr %6, align 8, !tbaa !42
  %33 = load ptr, ptr %6, align 8, !tbaa !42
  store ptr %33, ptr %3, align 8
  store i32 1, ptr %7, align 4
  br label %34

34:                                               ; preds = %25, %24
  call void @llvm.lifetime.end.p0(i64 8, ptr %6) #13
  %35 = load ptr, ptr %3, align 8
  ret ptr %35
}

; Function Attrs: nounwind uwtable
define ptr @pmix_attributes_reverse_lookup(ptr noundef %0) #0 {
  %2 = alloca ptr, align 8
  %3 = alloca ptr, align 8
  %4 = alloca ptr, align 8
  %5 = alloca i32, align 4
  %6 = alloca i32, align 4
  %7 = alloca ptr, align 8
  store ptr %0, ptr %3, align 8, !tbaa !68
  call void @llvm.lifetime.start.p0(i64 8, ptr %4) #13
  store ptr getelementptr inbounds nuw (%struct.pmix_globals_t, ptr @pmix_globals, i32 0, i32 37), ptr %4, align 8, !tbaa !42
  call void @llvm.lifetime.start.p0(i64 4, ptr %5) #13
  store i32 0, ptr %5, align 4, !tbaa !9
  br label %8

8:                                                ; preds = %37, %1
  %9 = load i32, ptr %5, align 4, !tbaa !9
  %10 = load ptr, ptr getelementptr inbounds nuw (%struct.pmix_keyindex_t, ptr getelementptr (i8, ptr @pmix_globals, i64 2928), i32 0, i32 1), align 8, !tbaa !196
  %11 = getelementptr inbounds nuw %struct.pmix_pointer_array_t, ptr %10, i32 0, i32 3
  %12 = load i32, ptr %11, align 8, !tbaa !197
  %13 = icmp slt i32 %9, %12
  br i1 %13, label %15, label %14

14:                                               ; preds = %8
  store i32 2, ptr %6, align 4
  br label %40

15:                                               ; preds = %8
  call void @llvm.lifetime.start.p0(i64 8, ptr %7) #13
  %16 = load ptr, ptr getelementptr inbounds nuw (%struct.pmix_keyindex_t, ptr getelementptr (i8, ptr @pmix_globals, i64 2928), i32 0, i32 1), align 8, !tbaa !196
  %17 = load i32, ptr %5, align 4, !tbaa !9
  %18 = call ptr @pmix_pointer_array_get_item(ptr noundef %16, i32 noundef %17)
  store ptr %18, ptr %7, align 8, !tbaa !42
  %19 = load ptr, ptr %7, align 8, !tbaa !42
  %20 = icmp eq ptr null, %19
  br i1 %20, label %21, label %22

21:                                               ; preds = %15
  store i32 2, ptr %6, align 4
  br label %34

22:                                               ; preds = %15
  %23 = load ptr, ptr %7, align 8, !tbaa !42
  %24 = getelementptr inbounds nuw %struct.pmix_regattr_input_t, ptr %23, i32 0, i32 2
  %25 = load ptr, ptr %24, align 8, !tbaa !47
  %26 = load ptr, ptr %3, align 8, !tbaa !68
  %27 = call i32 @strcasecmp(ptr noundef %25, ptr noundef %26) #15
  %28 = icmp eq i32 0, %27
  br i1 %28, label %29, label %33

29:                                               ; preds = %22
  %30 = load ptr, ptr %7, align 8, !tbaa !42
  %31 = getelementptr inbounds nuw %struct.pmix_regattr_input_t, ptr %30, i32 0, i32 1
  %32 = load ptr, ptr %31, align 8, !tbaa !46
  store ptr %32, ptr %2, align 8
  store i32 1, ptr %6, align 4
  br label %34

33:                                               ; preds = %22
  store i32 0, ptr %6, align 4
  br label %34

34:                                               ; preds = %33, %29, %21
  call void @llvm.lifetime.end.p0(i64 8, ptr %7) #13
  %35 = load i32, ptr %6, align 4
  switch i32 %35, label %40 [
    i32 0, label %36
  ]

36:                                               ; preds = %34
  br label %37

37:                                               ; preds = %36
  %38 = load i32, ptr %5, align 4, !tbaa !9
  %39 = add nsw i32 %38, 1
  store i32 %39, ptr %5, align 4, !tbaa !9
  br label %8, !llvm.loop !201

40:                                               ; preds = %34, %14
  call void @llvm.lifetime.end.p0(i64 4, ptr %5) #13
  %41 = load i32, ptr %6, align 4
  switch i32 %41, label %44 [
    i32 2, label %42
  ]

42:                                               ; preds = %40
  %43 = load ptr, ptr %3, align 8, !tbaa !68
  store ptr %43, ptr %2, align 8
  store i32 1, ptr %6, align 4
  br label %44

44:                                               ; preds = %42, %40
  call void @llvm.lifetime.end.p0(i64 8, ptr %4) #13
  %45 = load ptr, ptr %2, align 8
  ret ptr %45
}