; Function Attrs: nofree nounwind memory(read) uwtable
define ptr @pmix_attributes_reverse_lookup(ptr noundef readonly captures(ret: address, provenance) %0) local_unnamed_addr #8 {
  %2 = load ptr, ptr getelementptr inbounds nuw (i8, ptr @pmix_globals, i64 3048), align 8, !tbaa !154
  %3 = getelementptr inbounds nuw i8, ptr %2, i64 128
  %4 = load i32, ptr %3, align 8, !tbaa !155
  %5 = icmp sgt i32 %4, 0
  br i1 %5, label %pmix_pointer_array_get_item.exit.lr.ph, label %.thread18

pmix_pointer_array_get_item.exit.lr.ph:           ; preds = %1
  %6 = getelementptr inbounds nuw i8, ptr %2, i64 152
  %7 = load ptr, ptr %6, align 8, !tbaa !156
  %wide.trip.count = zext nneg i32 %4 to i64
  br label %pmix_pointer_array_get_item.exit

8:                                                ; preds = %12
  %indvars.iv.next = add nuw nsw i64 %indvars.iv, 1
  %exitcond.not = icmp eq i64 %indvars.iv.next, %wide.trip.count
  br i1 %exitcond.not, label %.thread18, label %pmix_pointer_array_get_item.exit, !llvm.loop !173

pmix_pointer_array_get_item.exit:                 ; preds = %pmix_pointer_array_get_item.exit.lr.ph, %8
  %indvars.iv = phi i64 [ 0, %pmix_pointer_array_get_item.exit.lr.ph ], [ %indvars.iv.next, %8 ]
  %9 = getelementptr inbounds nuw ptr, ptr %7, i64 %indvars.iv
  %10 = load ptr, ptr %9, align 8, !tbaa !18
  %11 = icmp eq ptr %10, null
  br i1 %11, label %.thread18, label %12

12:                                               ; preds = %pmix_pointer_array_get_item.exit
  %13 = getelementptr inbounds nuw i8, ptr %10, i64 16
  %14 = load ptr, ptr %13, align 8, !tbaa !46
  %15 = tail call i32 @strcasecmp(ptr noundef %14, ptr noundef %0) #20
  %16 = icmp eq i32 %15, 0
  br i1 %16, label %17, label %8

17:                                               ; preds = %12
  %18 = getelementptr inbounds nuw i8, ptr %10, i64 8
  %19 = load ptr, ptr %18, align 8, !tbaa !45
  br label %.thread18

.thread18:                                        ; preds = %8, %pmix_pointer_array_get_item.exit, %1, %17
  %20 = phi ptr [ %19, %17 ], [ %0, %1 ], [ %0, %pmix_pointer_array_get_item.exit ], [ %0, %8 ]
  ret ptr %20
}